; Function Attrs: mustprogress nounwind uwtable
define hidden void @_ZN9vmSymbols21metaspace_pointers_doEP16MetaspaceClosure(ptr noundef %0) local_unnamed_addr #0 align 2 {
  br label %2

2:                                                ; preds = %1, %2
  %indvars.iv = phi i64 [ 1, %1 ], [ %indvars.iv.next, %2 ]
  %3 = getelementptr inbounds [0 x ptr], ptr @_ZN6Symbol11_vm_symbolsE, i64 0, i64 %indvars.iv
  %4 = tail call noundef ptr @_Z12AllocateHeapm8MEMFLAGSN17AllocFailStrategy13AllocFailEnumE(i64 noundef 40, i8 noundef zeroext 24, i32 noundef 0) #9
  %5 = getelementptr inbounds i8, ptr %4, i64 8
  store i32 2, ptr %5, align 8
  %6 = getelementptr inbounds i8, ptr %4, i64 16
  tail call void @llvm.memset.p0.i64(ptr noundef nonnull align 8 dereferenceable(16) %6, i8 0, i64 16, i1 false)
  store ptr getelementptr inbounds inrange(-16, 72) (i8, ptr @_ZTVN16MetaspaceClosure6MSORefI6SymbolEE, i64 16), ptr %4, align 8
  %7 = getelementptr inbounds i8, ptr %4, i64 32
  store ptr %3, ptr %7, align 8
  tail call void @_ZN16MetaspaceClosure9push_implEPNS_3RefE(ptr noundef nonnull align 8 dereferenceable(32) %0, ptr noundef nonnull %4) #9
  %indvars.iv.next = add nuw nsw i64 %indvars.iv, 1
  %.not = icmp eq i64 %indvars.iv.next, 1170
  br i1 %.not, label %.preheader, label %2

.preheader:                                       ; preds = %2, %.preheader
  %indvars.iv14 = phi i64 [ %indvars.iv.next15, %.preheader ], [ 0, %2 ]
  %8 = getelementptr inbounds [15 x ptr], ptr @_ZN9vmSymbols16_type_signaturesE, i64 0, i64 %indvars.iv14
  %9 = tail call noundef ptr @_Z12AllocateHeapm8MEMFLAGSN17AllocFailStrategy13AllocFailEnumE(i64 noundef 40, i8 noundef zeroext 24, i32 noundef 0) #9
  %10 = getelementptr inbounds i8, ptr %9, i64 8
  store i32 2, ptr %10, align 8
  %11 = getelementptr inbounds i8, ptr %9, i64 16
  tail call void @llvm.memset.p0.i64(ptr noundef nonnull align 8 dereferenceable(16) %11, i8 0, i64 16, i1 false)
  store ptr getelementptr inbounds inrange(-16, 72) (i8, ptr @_ZTVN16MetaspaceClosure6MSORefI6SymbolEE, i64 16), ptr %9, align 8
  %12 = getelementptr inbounds i8, ptr %9, i64 32
  store ptr %8, ptr %12, align 8
  tail call void @_ZN16MetaspaceClosure9push_implEPNS_3RefE(ptr noundef nonnull align 8 dereferenceable(32) %0, ptr noundef nonnull %9) #9
  %indvars.iv.next15 = add nuw nsw i64 %indvars.iv14, 1
  %exitcond.not = icmp eq i64 %indvars.iv.next15, 15
  br i1 %exitcond.not, label %13, label %.preheader, !llvm.loop !8

13:                                               ; preds = %.preheader
  ret void
}